; Function Attrs: inlinehint mustprogress nounwind uwtable
define internal fastcc void @_ZN5arrow7compute8internal12_GLOBAL__N_117ValueCountsActionD2Ev(ptr noundef nonnull align 8 dereferenceable(240) initializes((24, 32)) %0) unnamed_addr #3 align 2 personality ptr @__gxx_personality_v0 {
  %2 = getelementptr inbounds nuw i8, ptr %0, i64 24
  store ptr getelementptr inbounds nuw inrange(-16, 112) (i8, ptr @_ZTVN5arrow14NumericBuilderINS_9Int64TypeEEE, i64 16), ptr %2, align 8, !tbaa !79
  %3 = getelementptr inbounds nuw i8, ptr %0, i64 192
  %4 = load ptr, ptr %3, align 8, !tbaa !81
  %.not.i.i.i.i.i = icmp eq ptr %4, null
  br i1 %.not.i.i.i.i.i, label %_ZN5arrow18TypedBufferBuilderIlvED2Ev.exit.i, label %5

5:                                                ; preds = %1
  %6 = getelementptr inbounds nuw i8, ptr %4, i64 8
  %7 = load atomic i64, ptr %6 acquire, align 8
  %8 = icmp eq i64 %7, 4294967297
  %9 = trunc i64 %7 to i32
  br i1 %8, label %10, label %18

10:                                               ; preds = %5
  store i32 0, ptr %6, align 8, !tbaa !76
  %11 = getelementptr inbounds nuw i8, ptr %4, i64 12
  store i32 0, ptr %11, align 4, !tbaa !78
  %12 = load ptr, ptr %4, align 8, !tbaa !79
  %13 = getelementptr inbounds nuw i8, ptr %12, i64 16
  %14 = load ptr, ptr %13, align 8
  tail call void %14(ptr noundef nonnull align 8 dereferenceable(16) %4) #33
  %15 = load ptr, ptr %4, align 8, !tbaa !79
  %16 = getelementptr inbounds nuw i8, ptr %15, i64 24
  %17 = load ptr, ptr %16, align 8
  tail call void %17(ptr noundef nonnull align 8 dereferenceable(16) %4) #33
  br label %_ZN5arrow18TypedBufferBuilderIlvED2Ev.exit.i

18:                                               ; preds = %5
  %19 = load i8, ptr @__libc_single_threaded, align 1, !tbaa !39
  %.not.i.i.i.i.i.i = icmp eq i8 %19, 0
  br i1 %.not.i.i.i.i.i.i, label %22, label %20

20:                                               ; preds = %18
  %21 = add nsw i32 %9, -1
  store i32 %21, ptr %6, align 4, !tbaa !115
  br label %_ZN9__gnu_cxx27__exchange_and_add_dispatchEPii.exit.i.i.i.i.i.i

22:                                               ; preds = %18
  %23 = atomicrmw volatile add ptr %6, i32 -1 acq_rel, align 4
  br label %_ZN9__gnu_cxx27__exchange_and_add_dispatchEPii.exit.i.i.i.i.i.i

_ZN9__gnu_cxx27__exchange_and_add_dispatchEPii.exit.i.i.i.i.i.i: ; preds = %22, %20
  %.0.i.i.i.i.i.i.i = phi i32 [ %9, %20 ], [ %23, %22 ]
  %24 = icmp eq i32 %.0.i.i.i.i.i.i.i, 1
  br i1 %24, label %25, label %_ZN5arrow18TypedBufferBuilderIlvED2Ev.exit.i, !prof !127

25:                                               ; preds = %_ZN9__gnu_cxx27__exchange_and_add_dispatchEPii.exit.i.i.i.i.i.i
  tail call void @_ZNSt16_Sp_counted_baseILN9__gnu_cxx12_Lock_policyE2EE24_M_release_last_use_coldEv(ptr noundef nonnull align 8 dereferenceable(16) %4) #33
  br label %_ZN5arrow18TypedBufferBuilderIlvED2Ev.exit.i

_ZN5arrow18TypedBufferBuilderIlvED2Ev.exit.i:     ; preds = %25, %_ZN9__gnu_cxx27__exchange_and_add_dispatchEPii.exit.i.i.i.i.i.i, %10, %1
  %26 = getelementptr inbounds nuw i8, ptr %0, i64 176
  %27 = load ptr, ptr %26, align 8, !tbaa !81
  %.not.i.i.i = icmp eq ptr %27, null
  br i1 %.not.i.i.i, label %_ZN5arrow14NumericBuilderINS_9Int64TypeEED2Ev.exit, label %28

28:                                               ; preds = %_ZN5arrow18TypedBufferBuilderIlvED2Ev.exit.i
  %29 = getelementptr inbounds nuw i8, ptr %27, i64 8
  %30 = load atomic i64, ptr %29 acquire, align 8
  %31 = icmp eq i64 %30, 4294967297
  %32 = trunc i64 %30 to i32
  br i1 %31, label %33, label %41

33:                                               ; preds = %28
  store i32 0, ptr %29, align 8, !tbaa !76
  %34 = getelementptr inbounds nuw i8, ptr %27, i64 12
  store i32 0, ptr %34, align 4, !tbaa !78
  %35 = load ptr, ptr %27, align 8, !tbaa !79
  %36 = getelementptr inbounds nuw i8, ptr %35, i64 16
  %37 = load ptr, ptr %36, align 8
  tail call void %37(ptr noundef nonnull align 8 dereferenceable(16) %27) #33
  %38 = load ptr, ptr %27, align 8, !tbaa !79
  %39 = getelementptr inbounds nuw i8, ptr %38, i64 24
  %40 = load ptr, ptr %39, align 8
  tail call void %40(ptr noundef nonnull align 8 dereferenceable(16) %27) #33
  br label %_ZN5arrow14NumericBuilderINS_9Int64TypeEED2Ev.exit

41:                                               ; preds = %28
  %42 = load i8, ptr @__libc_single_threaded, align 1, !tbaa !39
  %.not.i.i.i.i = icmp eq i8 %42, 0
  br i1 %.not.i.i.i.i, label %45, label %43

43:                                               ; preds = %41
  %44 = add nsw i32 %32, -1
  store i32 %44, ptr %29, align 4, !tbaa !115
  br label %_ZN9__gnu_cxx27__exchange_and_add_dispatchEPii.exit.i.i.i.i

45:                                               ; preds = %41
  %46 = atomicrmw volatile add ptr %29, i32 -1 acq_rel, align 4
  br label %_ZN9__gnu_cxx27__exchange_and_add_dispatchEPii.exit.i.i.i.i

_ZN9__gnu_cxx27__exchange_and_add_dispatchEPii.exit.i.i.i.i: ; preds = %45, %43
  %.0.i.i.i.i.i = phi i32 [ %32, %43 ], [ %46, %45 ]
  %47 = icmp eq i32 %.0.i.i.i.i.i, 1
  br i1 %47, label %48, label %_ZN5arrow14NumericBuilderINS_9Int64TypeEED2Ev.exit, !prof !127

48:                                               ; preds = %_ZN9__gnu_cxx27__exchange_and_add_dispatchEPii.exit.i.i.i.i
  tail call void @_ZNSt16_Sp_counted_baseILN9__gnu_cxx12_Lock_policyE2EE24_M_release_last_use_coldEv(ptr noundef nonnull align 8 dereferenceable(16) %27) #33
  br label %_ZN5arrow14NumericBuilderINS_9Int64TypeEED2Ev.exit

_ZN5arrow14NumericBuilderINS_9Int64TypeEED2Ev.exit: ; preds = %_ZN5arrow18TypedBufferBuilderIlvED2Ev.exit.i, %33, %_ZN9__gnu_cxx27__exchange_and_add_dispatchEPii.exit.i.i.i.i, %48
  tail call void @_ZN5arrow12ArrayBuilderD2Ev(ptr noundef nonnull align 8 dereferenceable(216) %2) #33
  %49 = getelementptr inbounds nuw i8, ptr %0, i64 8
  %.val = load ptr, ptr %49, align 8, !tbaa !81
  %.not.i.i.i1 = icmp eq ptr %.val, null
  br i1 %.not.i.i.i1, label %_ZN5arrow7compute8internal12_GLOBAL__N_110ActionBaseD2Ev.exit, label %50

50:                                               ; preds = %_ZN5arrow14NumericBuilderINS_9Int64TypeEED2Ev.exit
  %51 = getelementptr inbounds nuw i8, ptr %.val, i64 8
  %52 = load atomic i64, ptr %51 acquire, align 8
  %53 = icmp eq i64 %52, 4294967297
  %54 = trunc i64 %52 to i32
  br i1 %53, label %55, label %63

55:                                               ; preds = %50
  store i32 0, ptr %51, align 8, !tbaa !76
  %56 = getelementptr inbounds nuw i8, ptr %.val, i64 12
  store i32 0, ptr %56, align 4, !tbaa !78
  %57 = load ptr, ptr %.val, align 8, !tbaa !79
  %58 = getelementptr inbounds nuw i8, ptr %57, i64 16
  %59 = load ptr, ptr %58, align 8
  tail call void %59(ptr noundef nonnull align 8 dereferenceable(16) %.val) #33
  %60 = load ptr, ptr %.val, align 8, !tbaa !79
  %61 = getelementptr inbounds nuw i8, ptr %60, i64 24
  %62 = load ptr, ptr %61, align 8
  tail call void %62(ptr noundef nonnull align 8 dereferenceable(16) %.val) #33
  br label %_ZN5arrow7compute8internal12_GLOBAL__N_110ActionBaseD2Ev.exit

63:                                               ; preds = %50
  %64 = load i8, ptr @__libc_single_threaded, align 1, !tbaa !39
  %.not.i.i.i.i2 = icmp eq i8 %64, 0
  br i1 %.not.i.i.i.i2, label %67, label %65

65:                                               ; preds = %63
  %66 = add nsw i32 %54, -1
  store i32 %66, ptr %51, align 4, !tbaa !115
  br label %_ZN9__gnu_cxx27__exchange_and_add_dispatchEPii.exit.i.i.i.i3

67:                                               ; preds = %63
  %68 = atomicrmw volatile add ptr %51, i32 -1 acq_rel, align 4
  br label %_ZN9__gnu_cxx27__exchange_and_add_dispatchEPii.exit.i.i.i.i3

_ZN9__gnu_cxx27__exchange_and_add_dispatchEPii.exit.i.i.i.i3: ; preds = %67, %65
  %.0.i.i.i.i.i4 = phi i32 [ %54, %65 ], [ %68, %67 ]
  %69 = icmp eq i32 %.0.i.i.i.i.i4, 1
  br i1 %69, label %70, label %_ZN5arrow7compute8internal12_GLOBAL__N_110ActionBaseD2Ev.exit, !prof !127

70:                                               ; preds = %_ZN9__gnu_cxx27__exchange_and_add_dispatchEPii.exit.i.i.i.i3
  tail call void @_ZNSt16_Sp_counted_baseILN9__gnu_cxx12_Lock_policyE2EE24_M_release_last_use_coldEv(ptr noundef nonnull align 8 dereferenceable(16) %.val) #33
  br label %_ZN5arrow7compute8internal12_GLOBAL__N_110ActionBaseD2Ev.exit

_ZN5arrow7compute8internal12_GLOBAL__N_110ActionBaseD2Ev.exit: ; preds = %_ZN5arrow14NumericBuilderINS_9Int64TypeEED2Ev.exit, %55, %_ZN9__gnu_cxx27__exchange_and_add_dispatchEPii.exit.i.i.i.i3, %70
  ret void
}